target datalayout = "e-m:e-p270:32:32-p271:32:32-p272:64:64-i64:64-i128:128-f80:128-n8:16:32:64-S128"
target triple = "x86_64-pc-linux-gnu"

@.str.749 = private unnamed_addr constant [12 x i8] c"%d.%02d m/s\00", align 1
@.str.750 = private unnamed_addr constant [13 x i8] c"-%d.%02d m/s\00", align 1

; Function Attrs: nounwind uwtable
define internal void @fmt_dopplerms(ptr noundef %0, i32 noundef %1) #0 {
  %3 = alloca ptr, align 8
  %4 = alloca i32, align 4
  store ptr %0, ptr %3, align 8
  store i32 %1, ptr %4, align 4
  %5 = load i32, ptr %4, align 4
  %6 = icmp sge i32 %5, 0
  br i1 %6, label %7, label %16

7:                                                ; preds = %2
  %8 = load ptr, ptr %3, align 8
  %9 = load i32, ptr %4, align 4
  %10 = mul i32 %9, 4
  %11 = sdiv i32 %10, 100
  %12 = load i32, ptr %4, align 4
  %13 = mul i32 %12, 4
  %14 = srem i32 %13, 100
  %15 = call i32 (ptr, i64, ptr, ...) @snprintf(ptr noundef %8, i64 noundef 240, ptr noundef @.str.749, i32 noundef %11, i32 noundef %14) #3
  br label %27

16:                                               ; preds = %2
  %17 = load ptr, ptr %3, align 8
  %18 = load i32, ptr %4, align 4
  %19 = sub i32 0, %18
  %20 = mul i32 %19, 4
  %21 = sdiv i32 %20, 100
  %22 = load i32, ptr %4, align 4
  %23 = sub i32 0, %22
  %24 = mul i32 %23, 4
  %25 = srem i32 %24, 100
  %26 = call i32 (ptr, i64, ptr, ...) @snprintf(ptr noundef %17, i64 noundef 240, ptr noundef @.str.750, i32 noundef %21, i32 noundef %25) #3
  br label %27

27:                                               ; preds = %16, %7
  ret void
}